; Function Attrs: nounwind uwtable
define nonnull ptr @l_Lean_Linter_omit___elambda__1___lambda__1___boxed(ptr noundef %0) #0 {
  %2 = load ptr, ptr @l_Lean_Linter_omit___elambda__1___lambda__1___closed__3, align 8, !tbaa !4
  %3 = tail call zeroext i8 @l_Lean_Syntax_isOfKind(ptr noundef %0, ptr noundef %2) #3
  %4 = zext i8 %3 to i64
  %5 = shl nuw nsw i64 %4, 1
  %6 = or disjoint i64 %5, 1
  %7 = inttoptr i64 %6 to ptr
  ret ptr %7
}